; Function Attrs: nounwind uwtable
define ptr @Gia_ManCreateMuxGia(ptr noundef readonly captures(none) %0, i32 noundef %1, i32 noundef %2, i32 noundef %3, ptr noundef %4) local_unnamed_addr #0 {
  %6 = tail call ptr @Gia_ManContructTree(ptr noundef %0, i32 noundef %1, i32 noundef %2, i32 noundef %3)
  %7 = getelementptr inbounds nuw i8, ptr %6, i64 520
  %8 = load ptr, ptr %7, align 8, !tbaa !12
  %9 = load i32, ptr %6, align 8, !tbaa !15
  %10 = getelementptr inbounds nuw i8, ptr %6, i64 4
  %11 = load i32, ptr %10, align 4, !tbaa !14
  %.not.i = icmp eq ptr %4, null
  %12 = getelementptr inbounds nuw i8, ptr %6, i64 136
  %13 = select i1 %.not.i, ptr %12, ptr %4
  %14 = tail call ptr @Gia_ManBuildMuxesTest(ptr noundef %8, i32 noundef %9, i32 noundef %11, ptr noundef nonnull %13)
  %15 = getelementptr i8, ptr %6, i64 272
  br label %16

16:                                               ; preds = %21, %5
  %indvars.iv.i = phi i64 [ 0, %5 ], [ %indvars.iv.next.i, %21 ]
  %17 = shl nuw nsw i64 %indvars.iv.i, 4
  %18 = getelementptr i8, ptr %15, i64 %17
  %19 = load ptr, ptr %18, align 8, !tbaa !21
  %.not16.i = icmp eq ptr %19, null
  br i1 %.not16.i, label %21, label %20

20:                                               ; preds = %16
  tail call void @free(ptr noundef nonnull %19) #24
  store ptr null, ptr %18, align 8, !tbaa !21
  br label %21

21:                                               ; preds = %20, %16
  %indvars.iv.next.i = add nuw nsw i64 %indvars.iv.i, 1
  %exitcond.not.i = icmp eq i64 %indvars.iv.next.i, 16
  br i1 %exitcond.not.i, label %22, label %16, !llvm.loop !26

22:                                               ; preds = %21
  %23 = load ptr, ptr %7, align 8, !tbaa !12
  %.not.i7 = icmp eq ptr %23, null
  br i1 %.not.i7, label %Gia_ManTreeFree.exit, label %24

24:                                               ; preds = %22
  tail call void @free(ptr noundef nonnull %23) #24
  br label %Gia_ManTreeFree.exit

Gia_ManTreeFree.exit:                             ; preds = %22, %24
  tail call void @free(ptr noundef nonnull %6) #24
  ret ptr %14
}